target datalayout = "e-m:e-p270:32:32-p271:32:32-p272:64:64-i64:64-i128:128-f80:128-n8:16:32:64-S128"
target triple = "x86_64-unknown-linux-gnu"

%"class.bv::ackerman" = type { ptr, %class.hashtable, ptr, ptr, i32, i32, i32, i32, %class.svector }
%class.hashtable = type { %class.core_hashtable.base, [4 x i8] }
%class.core_hashtable.base = type <{ ptr, i32, i32, i32 }>
%class.svector = type { %class.vector }
%class.vector = type { ptr }
%"struct.bv::ackerman::vv" = type { %class.dll_base, i32, i32, i32, i32 }
%class.dll_base = type { ptr, ptr }
%class.default_hash_entry = type { i32, i32, ptr }

; Function Attrs: mustprogress nounwind uwtable
define linkonce_odr hidden void @_ZN8dll_baseIN2bv8ackerman2vvEEC2Ev(ptr noundef nonnull align 8 dereferenceable(16) %this) unnamed_addr #4 comdat align 2 {
entry:
  %this.addr = alloca ptr, align 8
  store ptr %this, ptr %this.addr, align 8
  %this1 = load ptr, ptr %this.addr, align 8
  %m_next = getelementptr inbounds %class.dll_base, ptr %this1, i32 0, i32 0
  store ptr null, ptr %m_next, align 8
  %m_prev = getelementptr inbounds %class.dll_base, ptr %this1, i32 0, i32 1
  store ptr null, ptr %m_prev, align 8
  ret void
}

; Function Attrs: mustprogress nounwind uwtable
define linkonce_odr hidden void @_ZN8dll_baseIN2bv8ackerman2vvEE4initEPS2_(ptr noundef nonnull align 8 dereferenceable(16) %this, ptr noundef %t) #4 comdat align 2 {
entry:
  %this.addr = alloca ptr, align 8
  %t.addr = alloca ptr, align 8
  store ptr %this, ptr %this.addr, align 8
  store ptr %t, ptr %t.addr, align 8
  %this1 = load ptr, ptr %this.addr, align 8
  %0 = load ptr, ptr %t.addr, align 8
  %m_next = getelementptr inbounds %class.dll_base, ptr %this1, i32 0, i32 0
  store ptr %0, ptr %m_next, align 8
  %1 = load ptr, ptr %t.addr, align 8
  %m_prev = getelementptr inbounds %class.dll_base, ptr %this1, i32 0, i32 1
  store ptr %1, ptr %m_prev, align 8
  ret void
}

; Function Attrs: mustprogress nounwind uwtable
define linkonce_odr hidden void @_ZN2bv8ackerman2vvC2Ev(ptr noundef nonnull align 8 dereferenceable(32) %this) unnamed_addr #4 comdat align 2 {
entry:
  %this.addr = alloca ptr, align 8
  store ptr %this, ptr %this.addr, align 8
  %this1 = load ptr, ptr %this.addr, align 8
  call void @_ZN8dll_baseIN2bv8ackerman2vvEEC2Ev(ptr noundef nonnull align 8 dereferenceable(16) %this1) #3
  %v1 = getelementptr inbounds %"struct.bv::ackerman::vv", ptr %this1, i32 0, i32 1
  store i32 -1, ptr %v1, align 8
  %v2 = getelementptr inbounds %"struct.bv::ackerman::vv", ptr %this1, i32 0, i32 2
  store i32 -1, ptr %v2, align 4
  %m_count = getelementptr inbounds %"struct.bv::ackerman::vv", ptr %this1, i32 0, i32 3
  store i32 0, ptr %m_count, align 8
  %m_glue = getelementptr inbounds %"struct.bv::ackerman::vv", ptr %this1, i32 0, i32 4
  store i32 -1, ptr %m_glue, align 4
  ret void
}

; Function Attrs: mustprogress nounwind uwtable
define linkonce_odr hidden noundef nonnull align 8 dereferenceable(8) ptr @_ZN18default_hash_entryIPN2bv8ackerman2vvEE8get_dataEv(ptr noundef nonnull align 8 dereferenceable(16) %this) #4 comdat align 2 {
entry:
  %this.addr = alloca ptr, align 8
  store ptr %this, ptr %this.addr, align 8
  %this1 = load ptr, ptr %this.addr, align 8
  %m_data = getelementptr inbounds %class.default_hash_entry, ptr %this1, i32 0, i32 2
  ret ptr %m_data
}

; Function Attrs: mustprogress uwtable
define linkonce_odr hidden noundef zeroext i1 @_ZN14core_hashtableI18default_hash_entryIPN2bv8ackerman2vvEENS2_7vv_hashENS2_5vv_eqEE24insert_if_not_there_coreERKS4_RPS5_(ptr noundef nonnull align 8 dereferenceable(20) %this, ptr noundef nonnull align 8 dereferenceable(8) %e, ptr noundef nonnull align 8 dereferenceable(8) %et) #5 comdat align 2 {
entry:
  %this.addr = alloca ptr, align 8
  %e.addr = alloca ptr, align 8
  %et.addr = alloca ptr, align 8
  %temp = alloca ptr, align 8
  store ptr %this, ptr %this.addr, align 8
  store ptr %e, ptr %e.addr, align 8
  store ptr %et, ptr %et.addr, align 8
  %this1 = load ptr, ptr %this.addr, align 8
  %0 = load ptr, ptr %e.addr, align 8
  %1 = load ptr, ptr %0, align 8
  store ptr %1, ptr %temp, align 8
  %2 = load ptr, ptr %et.addr, align 8
  %call = call noundef zeroext i1 @_ZN14core_hashtableI18default_hash_entryIPN2bv8ackerman2vvEENS2_7vv_hashENS2_5vv_eqEE24insert_if_not_there_coreEOS4_RPS5_(ptr noundef nonnull align 8 dereferenceable(20) %this1, ptr noundef nonnull align 8 dereferenceable(8) %temp, ptr noundef nonnull align 8 dereferenceable(8) %2)
  ret i1 %call
}

; Function Attrs: mustprogress uwtable
define hidden void @_ZN2bv8ackerman7new_tmpEv(ptr noundef nonnull align 8 dereferenceable(72) %this) #5 align 2 {
entry:
  %this.addr = alloca ptr, align 8
  store ptr %this, ptr %this.addr, align 8
  %this1 = load ptr, ptr %this.addr, align 8
  %call = call noalias noundef ptr @_ZN6memory8allocateEm(i64 noundef 32)
  call void @_ZN2bv8ackerman2vvC2Ev(ptr noundef nonnull align 8 dereferenceable(32) %call)
  %m_tmp_vv = getelementptr inbounds %"class.bv::ackerman", ptr %this1, i32 0, i32 3
  store ptr %call, ptr %m_tmp_vv, align 8
  %m_tmp_vv2 = getelementptr inbounds %"class.bv::ackerman", ptr %this1, i32 0, i32 3
  %0 = load ptr, ptr %m_tmp_vv2, align 8
  %m_tmp_vv3 = getelementptr inbounds %"class.bv::ackerman", ptr %this1, i32 0, i32 3
  %1 = load ptr, ptr %m_tmp_vv3, align 8
  call void @_ZN8dll_baseIN2bv8ackerman2vvEE4initEPS2_(ptr noundef nonnull align 8 dereferenceable(16) %0, ptr noundef %1)
  %m_tmp_vv4 = getelementptr inbounds %"class.bv::ackerman", ptr %this1, i32 0, i32 3
  %2 = load ptr, ptr %m_tmp_vv4, align 8
  %m_count = getelementptr inbounds %"struct.bv::ackerman::vv", ptr %2, i32 0, i32 3
  store i32 0, ptr %m_count, align 8
  %m_tmp_vv5 = getelementptr inbounds %"class.bv::ackerman", ptr %this1, i32 0, i32 3
  %3 = load ptr, ptr %m_tmp_vv5, align 8
  %m_glue = getelementptr inbounds %"struct.bv::ackerman::vv", ptr %3, i32 0, i32 4
  store i32 -1, ptr %m_glue, align 4
  ret void
}

; Function Attrs: mustprogress nounwind uwtable
define linkonce_odr hidden void @_ZN8dll_baseIN2bv8ackerman2vvEE13push_to_frontERPS2_S4_(ptr noundef nonnull align 8 dereferenceable(8) %list, ptr noundef %elem) #4 comdat align 2 {
entry:
  %list.addr = alloca ptr, align 8
  %elem.addr = alloca ptr, align 8
  %next = alloca ptr, align 8
  %prev = alloca ptr, align 8
  store ptr %list, ptr %list.addr, align 8
  store ptr %elem, ptr %elem.addr, align 8
  %0 = load ptr, ptr %list.addr, align 8
  %1 = load ptr, ptr %0, align 8
  %tobool = icmp ne ptr %1, null
  br i1 %tobool, label %if.else, label %if.then

if.then:                                          ; preds = %entry
  %2 = load ptr, ptr %elem.addr, align 8
  %3 = load ptr, ptr %list.addr, align 8
  store ptr %2, ptr %3, align 8
  %4 = load ptr, ptr %elem.addr, align 8
  %5 = load ptr, ptr %elem.addr, align 8
  %m_next = getelementptr inbounds %class.dll_base, ptr %5, i32 0, i32 0
  store ptr %4, ptr %m_next, align 8
  %6 = load ptr, ptr %elem.addr, align 8
  %7 = load ptr, ptr %elem.addr, align 8
  %m_prev = getelementptr inbounds %class.dll_base, ptr %7, i32 0, i32 1
  store ptr %6, ptr %m_prev, align 8
  br label %if.end12

if.else:                                          ; preds = %entry
  %8 = load ptr, ptr %list.addr, align 8
  %9 = load ptr, ptr %8, align 8
  %10 = load ptr, ptr %elem.addr, align 8
  %cmp = icmp ne ptr %9, %10
  br i1 %cmp, label %if.then1, label %if.end

if.then1:                                         ; preds = %if.else
  %11 = load ptr, ptr %elem.addr, align 8
  %m_next2 = getelementptr inbounds %class.dll_base, ptr %11, i32 0, i32 0
  %12 = load ptr, ptr %m_next2, align 8
  store ptr %12, ptr %next, align 8
  %13 = load ptr, ptr %elem.addr, align 8
  %m_prev3 = getelementptr inbounds %class.dll_base, ptr %13, i32 0, i32 1
  %14 = load ptr, ptr %m_prev3, align 8
  store ptr %14, ptr %prev, align 8
  %15 = load ptr, ptr %next, align 8
  %16 = load ptr, ptr %prev, align 8
  %m_next4 = getelementptr inbounds %class.dll_base, ptr %16, i32 0, i32 0
  store ptr %15, ptr %m_next4, align 8
  %17 = load ptr, ptr %prev, align 8
  %18 = load ptr, ptr %next, align 8
  %m_prev5 = getelementptr inbounds %class.dll_base, ptr %18, i32 0, i32 1
  store ptr %17, ptr %m_prev5, align 8
  %19 = load ptr, ptr %elem.addr, align 8
  %20 = load ptr, ptr %list.addr, align 8
  %21 = load ptr, ptr %20, align 8
  %m_prev6 = getelementptr inbounds %class.dll_base, ptr %21, i32 0, i32 1
  %22 = load ptr, ptr %m_prev6, align 8
  %m_next7 = getelementptr inbounds %class.dll_base, ptr %22, i32 0, i32 0
  store ptr %19, ptr %m_next7, align 8
  %23 = load ptr, ptr %list.addr, align 8
  %24 = load ptr, ptr %23, align 8
  %m_prev8 = getelementptr inbounds %class.dll_base, ptr %24, i32 0, i32 1
  %25 = load ptr, ptr %m_prev8, align 8
  %26 = load ptr, ptr %elem.addr, align 8
  %m_prev9 = getelementptr inbounds %class.dll_base, ptr %26, i32 0, i32 1
  store ptr %25, ptr %m_prev9, align 8
  %27 = load ptr, ptr %list.addr, align 8
  %28 = load ptr, ptr %27, align 8
  %29 = load ptr, ptr %elem.addr, align 8
  %m_next10 = getelementptr inbounds %class.dll_base, ptr %29, i32 0, i32 0
  store ptr %28, ptr %m_next10, align 8
  %30 = load ptr, ptr %elem.addr, align 8
  %31 = load ptr, ptr %list.addr, align 8
  %32 = load ptr, ptr %31, align 8
  %m_prev11 = getelementptr inbounds %class.dll_base, ptr %32, i32 0, i32 1
  store ptr %30, ptr %m_prev11, align 8
  %33 = load ptr, ptr %elem.addr, align 8
  %34 = load ptr, ptr %list.addr, align 8
  store ptr %33, ptr %34, align 8
  br label %if.end

if.end:                                           ; preds = %if.then1, %if.else
  br label %if.end12

if.end12:                                         ; preds = %if.end, %if.then
  ret void
}

; Function Attrs: mustprogress uwtable
define linkonce_odr hidden noundef nonnull align 8 dereferenceable(8) ptr @_ZN14core_hashtableI18default_hash_entryIPN2bv8ackerman2vvEENS2_7vv_hashENS2_5vv_eqEE19insert_if_not_thereERKS4_(ptr noundef nonnull align 8 dereferenceable(20) %this, ptr noundef nonnull align 8 dereferenceable(8) %e) #5 comdat align 2 {
entry:
  %this.addr = alloca ptr, align 8
  %e.addr = alloca ptr, align 8
  %et = alloca ptr, align 8
  store ptr %this, ptr %this.addr, align 8
  store ptr %e, ptr %e.addr, align 8
  %this1 = load ptr, ptr %this.addr, align 8
  %0 = load ptr, ptr %e.addr, align 8
  %call = call noundef zeroext i1 @_ZN14core_hashtableI18default_hash_entryIPN2bv8ackerman2vvEENS2_7vv_hashENS2_5vv_eqEE24insert_if_not_there_coreERKS4_RPS5_(ptr noundef nonnull align 8 dereferenceable(20) %this1, ptr noundef nonnull align 8 dereferenceable(8) %0, ptr noundef nonnull align 8 dereferenceable(8) %et)
  %1 = load ptr, ptr %et, align 8
  %call2 = call noundef nonnull align 8 dereferenceable(8) ptr @_ZN18default_hash_entryIPN2bv8ackerman2vvEE8get_dataEv(ptr noundef nonnull align 8 dereferenceable(16) %1)
  ret ptr %call2
}

; Function Attrs: mustprogress nounwind uwtable
define linkonce_odr hidden void @_ZN2bv8ackerman2vv7set_varEii(ptr noundef nonnull align 8 dereferenceable(32) %this, i32 noundef %x, i32 noundef %y) #4 comdat align 2 {
entry:
  %this.addr = alloca ptr, align 8
  %x.addr = alloca i32, align 4
  %y.addr = alloca i32, align 4
  store ptr %this, ptr %this.addr, align 8
  store i32 %x, ptr %x.addr, align 4
  store i32 %y, ptr %y.addr, align 4
  %this1 = load ptr, ptr %this.addr, align 8
  %0 = load i32, ptr %x.addr, align 4
  %v1 = getelementptr inbounds %"struct.bv::ackerman::vv", ptr %this1, i32 0, i32 1
  store i32 %0, ptr %v1, align 8
  %1 = load i32, ptr %y.addr, align 4
  %v2 = getelementptr inbounds %"struct.bv::ackerman::vv", ptr %this1, i32 0, i32 2
  store i32 %1, ptr %v2, align 4
  %m_count = getelementptr inbounds %"struct.bv::ackerman::vv", ptr %this1, i32 0, i32 3
  store i32 0, ptr %m_count, align 8
  %m_glue = getelementptr inbounds %"struct.bv::ackerman::vv", ptr %this1, i32 0, i32 4
  store i32 -1, ptr %m_glue, align 4
  ret void
}

; Function Attrs: mustprogress nounwind uwtable
define linkonce_odr void @_ZSt4swapIiENSt9enable_ifIXsr6__and_ISt6__not_ISt15__is_tuple_likeIT_EESt21is_move_constructibleIS3_ESt18is_move_assignableIS3_EEE5valueEvE4typeERS3_SC_(ptr noundef nonnull align 4 dereferenceable(4) %__a, ptr noundef nonnull align 4 dereferenceable(4) %__b) #4 comdat {
entry:
  %__a.addr = alloca ptr, align 8
  %__b.addr = alloca ptr, align 8
  %__tmp = alloca i32, align 4
  store ptr %__a, ptr %__a.addr, align 8
  store ptr %__b, ptr %__b.addr, align 8
  %0 = load ptr, ptr %__a.addr, align 8
  %1 = load i32, ptr %0, align 4
  store i32 %1, ptr %__tmp, align 4
  %2 = load ptr, ptr %__b.addr, align 8
  %3 = load i32, ptr %2, align 4
  %4 = load ptr, ptr %__a.addr, align 8
  store i32 %3, ptr %4, align 4
  %5 = load i32, ptr %__tmp, align 4
  %6 = load ptr, ptr %__b.addr, align 8
  store i32 %5, ptr %6, align 4
  ret void
}

; Function Attrs: mustprogress uwtable
define hidden void @_ZN2bv8ackerman13used_diseq_ehEii(ptr noundef nonnull align 8 dereferenceable(72) %this, i32 noundef %v1, i32 noundef %v2) #5 align 2 {
entry:
  %this.addr = alloca ptr, align 8
  %v1.addr = alloca i32, align 4
  %v2.addr = alloca i32, align 4
  %n = alloca ptr, align 8
  %other = alloca ptr, align 8
  store ptr %this, ptr %this.addr, align 8
  store i32 %v1, ptr %v1.addr, align 4
  store i32 %v2, ptr %v2.addr, align 4
  %this1 = load ptr, ptr %this.addr, align 8
  %0 = load i32, ptr %v1.addr, align 4
  %1 = load i32, ptr %v2.addr, align 4
  %cmp = icmp eq i32 %0, %1
  br i1 %cmp, label %if.then, label %if.end

if.then:                                          ; preds = %entry
  br label %if.end11

if.end:                                           ; preds = %entry
  %2 = load i32, ptr %v1.addr, align 4
  %3 = load i32, ptr %v2.addr, align 4
  %cmp2 = icmp sgt i32 %2, %3
  br i1 %cmp2, label %if.then3, label %if.end4

if.then3:                                         ; preds = %if.end
  call void @_ZSt4swapIiENSt9enable_ifIXsr6__and_ISt6__not_ISt15__is_tuple_likeIT_EESt21is_move_constructibleIS3_ESt18is_move_assignableIS3_EEE5valueEvE4typeERS3_SC_(ptr noundef nonnull align 4 dereferenceable(4) %v1.addr, ptr noundef nonnull align 4 dereferenceable(4) %v2.addr) #3
  br label %if.end4

if.end4:                                          ; preds = %if.then3, %if.end
  %m_tmp_vv = getelementptr inbounds %"class.bv::ackerman", ptr %this1, i32 0, i32 3
  %4 = load ptr, ptr %m_tmp_vv, align 8
  store ptr %4, ptr %n, align 8
  %5 = load ptr, ptr %n, align 8
  %6 = load i32, ptr %v1.addr, align 4
  %7 = load i32, ptr %v2.addr, align 4
  call void @_ZN2bv8ackerman2vv7set_varEii(ptr noundef nonnull align 8 dereferenceable(32) %5, i32 noundef %6, i32 noundef %7)
  %m_table = getelementptr inbounds %"class.bv::ackerman", ptr %this1, i32 0, i32 1
  %call = call noundef nonnull align 8 dereferenceable(8) ptr @_ZN14core_hashtableI18default_hash_entryIPN2bv8ackerman2vvEENS2_7vv_hashENS2_5vv_eqEE19insert_if_not_thereERKS4_(ptr noundef nonnull align 8 dereferenceable(20) %m_table, ptr noundef nonnull align 8 dereferenceable(8) %n)
  %8 = load ptr, ptr %call, align 8
  store ptr %8, ptr %other, align 8
  %9 = load ptr, ptr %other, align 8
  %m_count = getelementptr inbounds %"struct.bv::ackerman::vv", ptr %9, i32 0, i32 3
  %10 = load i32, ptr %m_count, align 8
  %inc = add i32 %10, 1
  store i32 %inc, ptr %m_count, align 8
  %m_queue = getelementptr inbounds %"class.bv::ackerman", ptr %this1, i32 0, i32 2
  %11 = load ptr, ptr %other, align 8
  call void @_ZN8dll_baseIN2bv8ackerman2vvEE13push_to_frontERPS2_S4_(ptr noundef nonnull align 8 dereferenceable(8) %m_queue, ptr noundef %11)
  %12 = load ptr, ptr %other, align 8
  %13 = load ptr, ptr %n, align 8
  %cmp5 = icmp eq ptr %12, %13
  br i1 %cmp5, label %if.then6, label %if.end7

if.then6:                                         ; preds = %if.end4
  call void @_ZN2bv8ackerman7new_tmpEv(ptr noundef nonnull align 8 dereferenceable(72) %this1)
  call void @_ZN2bv8ackerman2gcEv(ptr noundef nonnull align 8 dereferenceable(72) %this1)
  br label %if.end7

if.end7:                                          ; preds = %if.then6, %if.end4
  %14 = load ptr, ptr %other, align 8
  %m_count8 = getelementptr inbounds %"struct.bv::ackerman::vv", ptr %14, i32 0, i32 3
  %15 = load i32, ptr %m_count8, align 8
  %m_propagate_high_watermark = getelementptr inbounds %"class.bv::ackerman", ptr %this1, i32 0, i32 5
  %16 = load i32, ptr %m_propagate_high_watermark, align 4
  %mul = mul i32 2, %16
  %cmp9 = icmp ugt i32 %15, %mul
  br i1 %cmp9, label %if.then10, label %if.end11

if.then10:                                        ; preds = %if.end7
  call void @_ZN2bv8ackerman9propagateEv(ptr noundef nonnull align 8 dereferenceable(72) %this1)
  br label %if.end11

if.end11:                                         ; preds = %if.then10, %if.end7, %if.then
  ret void
}