; Function Attrs: mustprogress uwtable
define hidden void @_ZN2bv8ackerman13used_diseq_ehEii(ptr noundef nonnull align 8 dereferenceable(72) %this, i32 noundef %v1, i32 noundef %v2) local_unnamed_addr #3 align 2 {
entry:
  %temp.i.i = alloca ptr, align 8
  %et.i = alloca ptr, align 8
  %cmp = icmp eq i32 %v1, %v2
  br i1 %cmp, label %if.end11, label %if.end

if.end:                                           ; preds = %entry
  %spec.select = tail call i32 @llvm.smax.i32(i32 %v1, i32 %v2)
  %spec.select7 = tail call i32 @llvm.smin.i32(i32 %v1, i32 %v2)
  %m_tmp_vv = getelementptr inbounds i8, ptr %this, i64 40
  %0 = load ptr, ptr %m_tmp_vv, align 8
  %v1.i = getelementptr inbounds i8, ptr %0, i64 16
  store i32 %spec.select7, ptr %v1.i, align 8
  %v2.i = getelementptr inbounds i8, ptr %0, i64 20
  store i32 %spec.select, ptr %v2.i, align 4
  %m_count.i = getelementptr inbounds i8, ptr %0, i64 24
  store i32 0, ptr %m_count.i, align 8
  %m_glue.i = getelementptr inbounds i8, ptr %0, i64 28
  store i32 -1, ptr %m_glue.i, align 4
  %m_table = getelementptr inbounds i8, ptr %this, i64 8
  call void @llvm.lifetime.start.p0(i64 8, ptr nonnull %et.i)
  call void @llvm.lifetime.start.p0(i64 8, ptr nonnull %temp.i.i)
  store ptr %0, ptr %temp.i.i, align 8
  %call.i.i = call noundef zeroext i1 @_ZN14core_hashtableI18default_hash_entryIPN2bv8ackerman2vvEENS2_7vv_hashENS2_5vv_eqEE24insert_if_not_there_coreEOS4_RPS5_(ptr noundef nonnull align 8 dereferenceable(20) %m_table, ptr noundef nonnull align 8 dereferenceable(8) %temp.i.i, ptr noundef nonnull align 8 dereferenceable(8) %et.i)
  call void @llvm.lifetime.end.p0(i64 8, ptr nonnull %temp.i.i)
  %1 = load ptr, ptr %et.i, align 8
  %m_data.i.i = getelementptr inbounds i8, ptr %1, i64 8
  call void @llvm.lifetime.end.p0(i64 8, ptr nonnull %et.i)
  %2 = load ptr, ptr %m_data.i.i, align 8
  %m_count = getelementptr inbounds i8, ptr %2, i64 24
  %3 = load i32, ptr %m_count, align 8
  %inc = add i32 %3, 1
  store i32 %inc, ptr %m_count, align 8
  %m_queue = getelementptr inbounds i8, ptr %this, i64 32
  %4 = load ptr, ptr %m_queue, align 8
  %tobool.not.i = icmp eq ptr %4, null
  br i1 %tobool.not.i, label %if.then.i, label %if.else.i

if.then.i:                                        ; preds = %if.end
  store ptr %2, ptr %m_queue, align 8
  store ptr %2, ptr %2, align 8
  %m_prev.i = getelementptr inbounds i8, ptr %2, i64 8
  br label %if.end12.sink.split.i

if.else.i:                                        ; preds = %if.end
  %cmp.not.i = icmp eq ptr %4, %2
  br i1 %cmp.not.i, label %_ZN8dll_baseIN2bv8ackerman2vvEE13push_to_frontERPS2_S4_.exit, label %if.then1.i

if.then1.i:                                       ; preds = %if.else.i
  %5 = load ptr, ptr %2, align 8
  %m_prev3.i = getelementptr inbounds i8, ptr %2, i64 8
  %6 = load ptr, ptr %m_prev3.i, align 8
  store ptr %5, ptr %6, align 8
  %m_prev5.i = getelementptr inbounds i8, ptr %5, i64 8
  store ptr %6, ptr %m_prev5.i, align 8
  %7 = load ptr, ptr %m_queue, align 8
  %m_prev6.i = getelementptr inbounds i8, ptr %7, i64 8
  %8 = load ptr, ptr %m_prev6.i, align 8
  store ptr %2, ptr %8, align 8
  %9 = load ptr, ptr %m_queue, align 8
  %m_prev8.i = getelementptr inbounds i8, ptr %9, i64 8
  %10 = load ptr, ptr %m_prev8.i, align 8
  store ptr %10, ptr %m_prev3.i, align 8
  %11 = load ptr, ptr %m_queue, align 8
  store ptr %11, ptr %2, align 8
  %m_prev11.i = getelementptr inbounds i8, ptr %11, i64 8
  store ptr %2, ptr %m_prev11.i, align 8
  br label %if.end12.sink.split.i

if.end12.sink.split.i:                            ; preds = %if.then1.i, %if.then.i
  %list.sink.i = phi ptr [ %m_queue, %if.then1.i ], [ %m_prev.i, %if.then.i ]
  store ptr %2, ptr %list.sink.i, align 8
  br label %_ZN8dll_baseIN2bv8ackerman2vvEE13push_to_frontERPS2_S4_.exit

_ZN8dll_baseIN2bv8ackerman2vvEE13push_to_frontERPS2_S4_.exit: ; preds = %if.else.i, %if.end12.sink.split.i
  %cmp5 = icmp eq ptr %2, %0
  br i1 %cmp5, label %if.then6, label %if.end7

if.then6:                                         ; preds = %_ZN8dll_baseIN2bv8ackerman2vvEE13push_to_frontERPS2_S4_.exit
  %call.i = call noalias noundef ptr @_ZN6memory8allocateEm(i64 noundef 32)
  %v1.i.i = getelementptr inbounds i8, ptr %call.i, i64 16
  store ptr %call.i, ptr %m_tmp_vv, align 8
  store ptr %call.i, ptr %call.i, align 8
  %m_prev.i.i = getelementptr inbounds i8, ptr %call.i, i64 8
  store ptr %call.i, ptr %m_prev.i.i, align 8
  store <4 x i32> <i32 -1, i32 -1, i32 0, i32 -1>, ptr %v1.i.i, align 8
  call void @_ZN2bv8ackerman2gcEv(ptr noundef nonnull align 8 dereferenceable(72) %this)
  br label %if.end7

if.end7:                                          ; preds = %if.then6, %_ZN8dll_baseIN2bv8ackerman2vvEE13push_to_frontERPS2_S4_.exit
  %12 = load i32, ptr %m_count, align 8
  %m_propagate_high_watermark = getelementptr inbounds i8, ptr %this, i64 52
  %13 = load i32, ptr %m_propagate_high_watermark, align 4
  %mul = shl i32 %13, 1
  %cmp9 = icmp ugt i32 %12, %mul
  br i1 %cmp9, label %if.then10, label %if.end11

if.then10:                                        ; preds = %if.end7
  call void @_ZN2bv8ackerman9propagateEv(ptr noundef nonnull align 8 dereferenceable(72) %this)
  br label %if.end11

if.end11:                                         ; preds = %entry, %if.then10, %if.end7
  ret void
}